# openssl x509 -in searchlight/tests/var/certificate.crt -noout -text
# Certificate:
#     Data:
#         Version: 3 (0x2)
#         Serial Number:
#             90:66:1d:7c:b0:6e:39:9e
#         Signature Algorithm: sha1WithRSAEncryption
#         Issuer: C=US, ST=CO, L=Fort Collins, O=OpenStack, OU=Searchlight,
# CN=127.0.0.1
#         Validity
#             Not Before: Sep 29 19:47:11 2015 GMT
#             Not After : Sep 28 19:47:11 2016 GMT
#         Subject: C=US, ST=CO, L=Fort Collins, O=OpenStack, OU=Searchlight,
# CN=127.0.0.1
#         Subject Public Key Info:
#             Public Key Algorithm: rsaEncryption
#             RSA Public Key: (4096 bit)
#                 Modulus (4096 bit):
#                     00:d4:59:c2:8a:fa:7a:e6:90:f5:00:47:94:07:7d:
#                     a2:a2:39:7e:be:5c:77:05:77:71:e8:d5:fa:0a:c2:
#                     de:32:0e:eb:1c:8d:53:a2:82:6a:01:74:05:55:7e:
#                     a2:8e:43:3c:e7:79:6f:bf:47:ec:5a:cc:38:d8:90:
#                     72:9d:c2:92:7c:e5:74:67:b0:55:0e:9d:f6:18:26:
#                     54:f8:9c:1b:8e:0f:1f:79:58:34:40:a1:91:41:cb:
#                     eb:46:9e:86:55:70:94:10:f6:c0:ed:24:6d:93:83:
#                     69:3c:43:e1:b8:10:36:68:d5:bf:ef:67:cf:f0:73:
#                     a1:33:68:88:d7:ff:85:36:a8:74:aa:f0:06:6b:81:
#                     07:cb:bf:0b:ef:81:68:12:1c:0b:5a:fe:3c:39:22:
#                     14:a0:a5:03:f0:79:b9:b9:3a:d5:1d:f8:f4:4b:f4:
#                     fc:3f:6f:63:34:19:12:c9:e4:b8:cd:00:99:5a:ae:
#                     40:8c:78:86:db:ae:4b:a8:ee:b0:d3:b5:57:4c:55:
#                     5b:52:83:37:3c:c9:32:21:bb:62:d9:f1:0c:a3:81:
#                     73:6e:42:24:2e:57:b6:10:cf:6d:62:d6:ff:73:23:
#                     2b:4d:83:5d:03:c8:1b:1b:2a:c1:27:ea:42:55:3f:
#                     d3:2f:c5:1e:3d:88:a7:69:bf:02:74:3f:fd:64:45:
#                     92:ab:55:13:0b:63:82:1e:74:9f:cd:86:4d:6d:92:
#                     e9:6e:47:a3:f0:56:75:7c:c5:2a:25:cf:d1:a4:87:
#                     17:79:12:8f:ec:46:43:b2:60:e0:22:39:ac:85:df:
#                     2d:73:b9:3e:58:58:46:e1:a3:79:3f:bb:9f:f5:98:
#                     16:0b:b0:f1:d0:b1:99:39:c1:bd:68:1e:33:10:ab:
#                     2f:ea:48:f6:9a:b6:f9:24:d1:b5:ae:ed:00:03:76:
#                     1f:42:24:88:bf:3e:aa:5a:7e:e3:23:db:73:47:b4:
#                     86:aa:e7:14:7e:cf:f0:89:e5:94:c2:b3:c4:80:c7:
#                     b8:c3:e3:66:01:76:d1:4b:74:f0:7f:61:18:25:3b:
#                     eb:50:c2:c8:f0:00:1d:3f:9c:07:8f:6a:05:4b:ba:
#                     0d:ac:3c:79:94:18:f2:db:50:c9:c1:29:7a:39:e8:
#                     1f:a0:c8:fa:f7:9e:da:bc:9c:3d:91:e3:39:e1:c9:
#                     f8:c3:c8:52:23:f7:04:13:eb:89:97:cf:73:94:39:
#                     3b:41:00:ad:36:38:cf:f5:40:80:0b:94:29:b4:e4:
#                     6a:d1:f6:af:a6:36:45:48:d4:f9:a8:fb:32:15:f5:
#                     e0:19:c7:95:fa:33:91:9c:f8:97:80:de:f9:0c:91:
#                     25:73:f6:77:84:f0:5d:1a:98:88:75:8f:1f:87:69:
#                     74:af:27
#                 Exponent: 65537 (0x10001)
#         X509v3 extensions:
#             X509v3 Subject Key Identifier:
#                 95:A3:C5:2F:CE:C2:7E:8E:C4:E8:F8:AC:C4:E7:AD:C4:9B:0F:FF:CD
#             X509v3 Authority Key Identifier:
#                 keyid:95:A3:C5:2F:CE:C2:7E:8E:C4:E8:F8:AC:C4:E7:AD:C4:9B:0F:FF:CD
#                 DirName:/C=US/ST=CO/L=Fort
# Collins/O=OpenStack/OU=Searchlight/CN=127.0.0.1
#                 serial:90:66:1D:7C:B0:6E:39:9E
#
#             X509v3 Basic Constraints:
#                 CA:TRUE
#     Signature Algorithm: sha1WithRSAEncryption
#         b5:54:de:91:d7:0f:77:21:21:46:20:77:20:4e:92:79:6a:6d:
#         01:b5:05:77:70:d8:db:5d:51:8f:bb:01:86:3a:19:5c:28:69:
#         1e:a8:fa:19:92:9f:13:f3:69:77:79:16:09:16:57:00:1d:4b:
#         8c:5f:60:0d:84:e8:44:b2:b9:79:76:12:09:f0:03:a4:af:5f:
#         49:e5:86:58:5d:9f:6f:4b:26:46:cc:c0:20:c6:6e:e4:e8:ce:
#         b7:da:ee:3c:bd:16:9d:4a:d0:c9:23:85:94:7c:6c:e0:c8:ed:
#         8c:ae:5e:9f:b2:a3:e0:e3:54:05:31:b6:cb:7e:40:9a:2c:b5:
#         8c:e0:cc:38:75:6d:02:16:6b:db:bd:98:40:42:e4:a4:fb:32:
#         ce:60:1e:59:d9:b9:b4:fa:70:5f:c8:1c:fe:19:0e:ed:15:6b:
#         75:14:0f:2e:87:7e:0f:c2:c6:d4:08:c5:41:61:51:65:c0:7e:
#         bc:1e:f7:5e:39:72:09:0a:4d:5b:a3:6a:1f:46:15:81:12:d8:
#         f7:6e:d1:dc:0d:7b:38:e2:0a:5f:ed:f9:98:b1:dd:b0:96:64:
#         41:50:a7:63:10:da:38:42:5d:ad:cf:bb:fa:f0:a4:07:1a:cc:
#         dd:df:a2:f5:a6:96:0b:5f:5d:25:e1:b0:70:ab:67:8d:d9:01:
#         cd:70:78:fe:b7:62:4d:66:79:20:76:e0:31:2e:b8:c0:2e:37:
#         5a:87:30:44:ce:ee:ac:81:c1:cb:78:57:45:2c:15:32:5c:7c:
#         cd:ab:a6:74:08:a0:69:de:4c:40:ad:a4:7d:c8:26:a1:8d:b8:
#         b3:9b:83:40:38:4f:cf:d9:f7:25:25:19:d5:01:16:7b:74:70:
#         46:b7:a1:ff:fb:cc:00:05:ff:78:e8:ff:5a:f5:b7:54:70:98:
#         8e:28:61:61:cf:23:9c:bf:b1:8d:54:91:7f:d6:f1:24:17:d0:
#         59:f0:64:fa:f4:d3:9a:1e:8d:d3:d3:3b:68:1b:fc:0b:6d:f9:
#         f1:5e:7d:7d:82:84:b9:34:ac:ed:a3:82:0a:b6:bb:1e:79:5a:
#         02:9c:da:f4:ba:2d:33:4c:79:51:03:b7:ba:9e:83:f9:53:75:
#         1b:45:55:60:4d:e5:2b:24:b4:48:c1:9e:cc:72:1f:45:aa:61:
#         38:1c:21:fa:b8:5a:a5:65:2d:55:41:fd:37:0b:b9:c2:9e:d5:
#         2b:51:e9:59:a6:7b:c4:c4:a9:3b:e8:4f:ae:08:28:3d:f2:d4:
#         ff:69:50:e3:81:2b:22:cc:0a:c5:5c:74:38:24:4c:bc:78:7e:
#         57:8c:60:cb:f9:ec:42:cd:f9:fb:4f:39:db:43:aa:79:43:1e:
#         a0:1f:ae:77:5d:90:f2:fa
-----BEGIN CERTIFICATE-----
MIIGNjCCBB6gAwIBAgIJAJBmHXywbjmeMA0GCSqGSIb3DQEBBQUAMG8xCzAJBgNV
BAYTAlVTMQswCQYDVQQIEwJDTzEVMBMGA1UEBxMMRm9ydCBDb2xsaW5zMRIwEAYD
VQQKEwlPcGVuU3RhY2sxFDASBgNVBAsTC1NlYXJjaGxpZ2h0MRIwEAYDVQQDEwkx
MjcuMC4wLjEwHhcNMTUwOTI5MTk0NzExWhcNMTYwOTI4MTk0NzExWjBvMQswCQYD
VQQGEwJVUzELMAkGA1UECBMCQ08xFTATBgNVBAcTDEZvcnQgQ29sbGluczESMBAG
A1UEChMJT3BlblN0YWNrMRQwEgYDVQQLEwtTZWFyY2hsaWdodDESMBAGA1UEAxMJ
MTI3LjAuMC4xMIICIjANBgkqhkiG9w0BAQEFAAOCAg8AMIICCgKCAgEA1FnCivp6
5pD1AEeUB32iojl+vlx3BXdx6NX6CsLeMg7rHI1TooJqAXQFVX6ijkM853lvv0fs
Wsw42JByncKSfOV0Z7BVDp32GCZU+Jwbjg8feVg0QKGRQcvrRp6GVXCUEPbA7SRt
k4NpPEPhuBA2aNW/72fP8HOhM2iI1/+FNqh0qvAGa4EHy78L74FoEhwLWv48OSIU
oKUD8Hm5uTrVHfj0S/T8P29jNBkSyeS4zQCZWq5AjHiG265LqO6w07VXTFVbUoM3
PMkyIbti2fEMo4FzbkIkLle2EM9tYtb/cyMrTYNdA8gbGyrBJ+pCVT/TL8UePYin
ab8CdD/9ZEWSq1UTC2OCHnSfzYZNbZLpbkej8FZ1fMUqJc/RpIcXeRKP7EZDsmDg
Ijmshd8tc7k+WFhG4aN5P7uf9ZgWC7Dx0LGZOcG9aB4zEKsv6kj2mrb5JNG1ru0A
A3YfQiSIvz6qWn7jI9tzR7SGqucUfs/wieWUwrPEgMe4w+NmAXbRS3Twf2EYJTvr
UMLI8AAdP5wHj2oFS7oNrDx5lBjy21DJwSl6OegfoMj6957avJw9keM54cn4w8hS
I/cEE+uJl89zlDk7QQCtNjjP9UCAC5QptORq0favpjZFSNT5qPsyFfXgGceV+jOR
nPiXgN75DJElc/Z3hPBdGpiIdY8fh2l0rycCAwEAAaOB1DCB0TAdBgNVHQ4EFgQU
laPFL87Cfo7E6PisxOetxJsP/80wgaEGA1UdIwSBmTCBloAUlaPFL87Cfo7E6Pis
xOetxJsP/82hc6RxMG8xCzAJBgNVBAYTAlVTMQswCQYDVQQIEwJDTzEVMBMGA1UE
BxMMRm9ydCBDb2xsaW5zMRIwEAYDVQQKEwlPcGVuU3RhY2sxFDASBgNVBAsTC1Nl
YXJjaGxpZ2h0MRIwEAYDVQQDEwkxMjcuMC4wLjGCCQCQZh18sG45njAMBgNVHRME
BTADAQH/MA0GCSqGSIb3DQEBBQUAA4ICAQC1VN6R1w93ISFGIHcgTpJ5am0BtQV3
cNjbXVGPuwGGOhlcKGkeqPoZkp8T82l3eRYJFlcAHUuMX2ANhOhEsrl5dhIJ8AOk
r19J5YZYXZ9vSyZGzMAgxm7k6M632u48vRadStDJI4WUfGzgyO2Mrl6fsqPg41QF
MbbLfkCaLLWM4Mw4dW0CFmvbvZhAQuSk+zLOYB5Z2bm0+nBfyBz+GQ7tFWt1FA8u
h34PwsbUCMVBYVFlwH68HvdeOXIJCk1bo2ofRhWBEtj3btHcDXs44gpf7fmYsd2w
lmRBUKdjENo4Ql2tz7v68KQHGszd36L1ppYLX10l4bBwq2eN2QHNcHj+t2JNZnkg
duAxLrjALjdahzBEzu6sgcHLeFdFLBUyXHzNq6Z0CKBp3kxAraR9yCahjbizm4NA
OE/P2fclJRnVARZ7dHBGt6H/+8wABf946P9a9bdUcJiOKGFhzyOcv7GNVJF/1vEk
F9BZ8GT69NOaHo3T0ztoG/wLbfnxXn19goS5NKzto4IKtrseeVoCnNr0ui0zTHlR
A7e6noP5U3UbRVVgTeUrJLRIwZ7Mch9FqmE4HCH6uFqlZS1VQf03C7nCntUrUelZ
pnvExKk76E+uCCg98tT/aVDjgSsizArFXHQ4JEy8eH5XjGDL+exCzfn7TznbQ6p5
Qx6gH653XZDy+g==
-----END CERTIFICATE-----
